; Function Attrs: mustprogress nofree norecurse nosync nounwind willreturn memory(argmem: readwrite) uwtable
define hidden void @_ZN14PhaseIdealLoop21revert_to_normal_loopEPK8LoopNode(ptr noundef %0) local_unnamed_addr #2 align 2 {
  %2 = getelementptr inbounds i8, ptr %0, i64 44
  %3 = load i32, ptr %2, align 4
  %4 = and i32 %3, 1023
  %5 = icmp ne i32 %4, 864
  %.not4 = icmp eq ptr %0, null
  %.not = or i1 %.not4, %5
  br i1 %.not, label %13, label %6

6:                                                ; preds = %1
  %7 = getelementptr inbounds i8, ptr %0, i64 60
  %8 = load i32, ptr %7, align 4
  %9 = and i32 %8, 3
  %10 = icmp eq i32 %9, 0
  br i1 %10, label %13, label %11

11:                                               ; preds = %6
  %12 = and i32 %8, -4
  store i32 %12, ptr %7, align 4
  br label %13

13:                                               ; preds = %11, %6, %1
  ret void
}